
_interrupt:
	MOVWF      R15+0
	SWAPF      STATUS+0, 0
	CLRF       STATUS+0
	MOVWF      ___saveSTATUS+0
	MOVF       PCLATH+0, 0
	MOVWF      ___savePCLATH+0
	CLRF       PCLATH+0

;2.c,28 :: 		interrupt()
;2.c,30 :: 		rr = UART1_Read();
	CALL       _UART1_Read+0
	MOVF       R0+0, 0
	MOVWF      _rr+0
;2.c,31 :: 		switch(rr)
	GOTO       L_interrupt0
;2.c,33 :: 		case '$':
L_interrupt2:
;2.c,35 :: 		v=1;
	MOVLW      1
	MOVWF      _v+0
;2.c,36 :: 		i=0;
	CLRF       _i+0
	CLRF       _i+1
;2.c,37 :: 		break;
	GOTO       L_interrupt1
;2.c,40 :: 		case 'G':
L_interrupt3:
;2.c,42 :: 		if(v<6)
	MOVLW      6
	SUBWF      _v+0, 0
	BTFSC      STATUS+0, 0
	GOTO       L_interrupt4
;2.c,44 :: 		v++;
	INCF       _v+0, 1
;2.c,45 :: 		break;
	GOTO       L_interrupt1
;2.c,46 :: 		}
L_interrupt4:
;2.c,48 :: 		case 'P':
L_interrupt5:
;2.c,50 :: 		if(v==2)
	MOVF       _v+0, 0
	XORLW      2
	BTFSS      STATUS+0, 2
	GOTO       L_interrupt6
;2.c,51 :: 		v=3;
	MOVLW      3
	MOVWF      _v+0
L_interrupt6:
;2.c,52 :: 		break;
	GOTO       L_interrupt1
;2.c,55 :: 		case 'A':
L_interrupt7:
;2.c,57 :: 		if(v==5)
	MOVF       _v+0, 0
	XORLW      5
	BTFSS      STATUS+0, 2
	GOTO       L_interrupt8
;2.c,58 :: 		v=6;
	MOVLW      6
	MOVWF      _v+0
L_interrupt8:
;2.c,59 :: 		break;
	GOTO       L_interrupt1
;2.c,61 :: 		case 150:
L_interrupt9:
;2.c,63 :: 		mode=1;
	MOVLW      1
	MOVWF      _mode+0
	MOVLW      0
	MOVWF      _mode+1
;2.c,64 :: 		break;
	GOTO       L_interrupt1
;2.c,66 :: 		}
L_interrupt0:
	MOVF       _rr+0, 0
	XORLW      36
	BTFSC      STATUS+0, 2
	GOTO       L_interrupt2
	MOVF       _rr+0, 0
	XORLW      71
	BTFSC      STATUS+0, 2
	GOTO       L_interrupt3
	MOVF       _rr+0, 0
	XORLW      80
	BTFSC      STATUS+0, 2
	GOTO       L_interrupt5
	MOVF       _rr+0, 0
	XORLW      65
	BTFSC      STATUS+0, 2
	GOTO       L_interrupt7
	MOVF       _rr+0, 0
	XORLW      150
	BTFSC      STATUS+0, 2
	GOTO       L_interrupt9
L_interrupt1:
;2.c,67 :: 		if (v==6){
	MOVF       _v+0, 0
	XORLW      6
	BTFSS      STATUS+0, 2
	GOTO       L_interrupt10
;2.c,68 :: 		i++;
	INCF       _i+0, 1
	BTFSC      STATUS+0, 2
	INCF       _i+1, 1
;2.c,69 :: 		rec[i] = rr;
	MOVF       _i+0, 0
	ADDLW      _rec+0
	MOVWF      FSR
	MOVF       _rr+0, 0
	MOVWF      INDF+0
;2.c,70 :: 		}
L_interrupt10:
;2.c,72 :: 		}
L__interrupt41:
	MOVF       ___savePCLATH+0, 0
	MOVWF      PCLATH+0
	SWAPF      ___saveSTATUS+0, 0
	MOVWF      STATUS+0
	SWAPF      R15+0, 1
	SWAPF      R15+0, 0
	RETFIE
; end of _interrupt

_main:

;2.c,74 :: 		void main() {
;2.c,76 :: 		Lcd_Init();
	CALL       _Lcd_Init+0
;2.c,77 :: 		INTCON=0b11000000;
	MOVLW      192
	MOVWF      INTCON+0
;2.c,78 :: 		PIE1=0b00100000;
	MOVLW      32
	MOVWF      PIE1+0
;2.c,79 :: 		UART1_Init(9600);               // Initialize UART module at 9600 bps
	MOVLW      25
	MOVWF      SPBRG+0
	BSF        TXSTA+0, 2
	CALL       _UART1_Init+0
;2.c,80 :: 		Delay_ms(300);
	MOVLW      2
	MOVWF      R11+0
	MOVLW      134
	MOVWF      R12+0
	MOVLW      153
	MOVWF      R13+0
L_main11:
	DECFSZ     R13+0, 1
	GOTO       L_main11
	DECFSZ     R12+0, 1
	GOTO       L_main11
	DECFSZ     R11+0, 1
	GOTO       L_main11
;2.c,81 :: 		adcon1=7;
	MOVLW      7
	MOVWF      ADCON1+0
;2.c,82 :: 		trisa=0;
	CLRF       TRISA+0
;2.c,83 :: 		porta=0;
	CLRF       PORTA+0
;2.c,84 :: 		TRISD=0;
	CLRF       TRISD+0
;2.c,85 :: 		PORTD=0b11111111;
	MOVLW      255
	MOVWF      PORTD+0
;2.c,87 :: 		portd.f0=0; //GSM TX
	BCF        PORTD+0, 0
;2.c,88 :: 		TRISC=0;
	CLRF       TRISC+0
;2.c,89 :: 		portd.f3=0;   //zigbee Rx
	BCF        PORTD+0, 3
;2.c,90 :: 		portc.f4=1;
	BSF        PORTC+0, 4
;2.c,91 :: 		delay_ms(2000);
	MOVLW      11
	MOVWF      R11+0
	MOVLW      38
	MOVWF      R12+0
	MOVLW      93
	MOVWF      R13+0
L_main12:
	DECFSZ     R13+0, 1
	GOTO       L_main12
	DECFSZ     R12+0, 1
	GOTO       L_main12
	DECFSZ     R11+0, 1
	GOTO       L_main12
	NOP
	NOP
;2.c,92 :: 		TRISC=255;
	MOVLW      255
	MOVWF      TRISC+0
;2.c,93 :: 		delay_ms(2000);
	MOVLW      11
	MOVWF      R11+0
	MOVLW      38
	MOVWF      R12+0
	MOVLW      93
	MOVWF      R13+0
L_main13:
	DECFSZ     R13+0, 1
	GOTO       L_main13
	DECFSZ     R12+0, 1
	GOTO       L_main13
	DECFSZ     R11+0, 1
	GOTO       L_main13
	NOP
	NOP
;2.c,94 :: 		lcd_cmd(_LCD_CURSOR_OFF);
	MOVLW      12
	MOVWF      FARG_Lcd_Cmd_out_char+0
	CALL       _Lcd_Cmd+0
;2.c,95 :: 		for(;;){
L_main14:
;2.c,96 :: 		if(mode==0)
	MOVLW      0
	XORWF      _mode+1, 0
	BTFSS      STATUS+0, 2
	GOTO       L__main42
	MOVLW      0
	XORWF      _mode+0, 0
L__main42:
	BTFSS      STATUS+0, 2
	GOTO       L_main17
;2.c,98 :: 		hr[0]=rr/100+48;
	MOVLW      100
	MOVWF      R4+0
	MOVF       _rr+0, 0
	MOVWF      R0+0
	CALL       _Div_8x8_U+0
	MOVLW      48
	ADDWF      R0+0, 0
	MOVWF      _hr+0
;2.c,99 :: 		rem=rr%100;
	MOVLW      100
	MOVWF      R4+0
	MOVF       _rr+0, 0
	MOVWF      R0+0
	CALL       _Div_8x8_U+0
	MOVF       R8+0, 0
	MOVWF      R0+0
	MOVF       R0+0, 0
	MOVWF      _rem+0
;2.c,100 :: 		hr[1]=rem/10+48;
	MOVLW      10
	MOVWF      R4+0
	CALL       _Div_8x8_U+0
	MOVLW      48
	ADDWF      R0+0, 0
	MOVWF      _hr+1
;2.c,101 :: 		hr[2]=rem%10+48;
	MOVLW      10
	MOVWF      R4+0
	MOVF       _rem+0, 0
	MOVWF      R0+0
	CALL       _Div_8x8_U+0
	MOVF       R8+0, 0
	MOVWF      R0+0
	MOVLW      48
	ADDWF      R0+0, 0
	MOVWF      _hr+2
;2.c,102 :: 		lcd_out(1,1,hear);
	MOVLW      1
	MOVWF      FARG_Lcd_Out_row+0
	MOVLW      1
	MOVWF      FARG_Lcd_Out_column+0
	MOVLW      _hear+0
	MOVWF      FARG_Lcd_Out_text+0
	CALL       _Lcd_Out+0
;2.c,103 :: 		lcd_out_cp(hr);
	MOVLW      _hr+0
	MOVWF      FARG_Lcd_Out_CP_text+0
	CALL       _Lcd_Out_CP+0
;2.c,105 :: 		}
L_main17:
;2.c,107 :: 		if(mode==1)
	MOVLW      0
	XORWF      _mode+1, 0
	BTFSS      STATUS+0, 2
	GOTO       L__main43
	MOVLW      1
	XORWF      _mode+0, 0
L__main43:
	BTFSS      STATUS+0, 2
	GOTO       L_main18
;2.c,109 :: 		PORTD=0b11111111;
	MOVLW      255
	MOVWF      PORTD+0
;2.c,110 :: 		portd.f0=0; //GSM TX
	BCF        PORTD+0, 0
;2.c,111 :: 		portd.f6=0; //GPS Rx
	BCF        PORTD+0, 6
;2.c,112 :: 		lcd_cmd(_LCD_CLEAR);
	MOVLW      1
	MOVWF      FARG_Lcd_Cmd_out_char+0
	CALL       _Lcd_Cmd+0
;2.c,113 :: 		porta.f1=1;
	BSF        PORTA+0, 1
;2.c,114 :: 		delay_ms(500);
	MOVLW      3
	MOVWF      R11+0
	MOVLW      138
	MOVWF      R12+0
	MOVLW      85
	MOVWF      R13+0
L_main19:
	DECFSZ     R13+0, 1
	GOTO       L_main19
	DECFSZ     R12+0, 1
	GOTO       L_main19
	DECFSZ     R11+0, 1
	GOTO       L_main19
	NOP
	NOP
;2.c,115 :: 		porta.f1=0;
	BCF        PORTA+0, 1
;2.c,116 :: 		mode=2;
	MOVLW      2
	MOVWF      _mode+0
	MOVLW      0
	MOVWF      _mode+1
;2.c,117 :: 		while(v<6)
L_main20:
	MOVLW      6
	SUBWF      _v+0, 0
	BTFSC      STATUS+0, 0
	GOTO       L_main21
;2.c,118 :: 		{ }
	GOTO       L_main20
L_main21:
;2.c,119 :: 		delay_ms(2000);
	MOVLW      11
	MOVWF      R11+0
	MOVLW      38
	MOVWF      R12+0
	MOVLW      93
	MOVWF      R13+0
L_main22:
	DECFSZ     R13+0, 1
	GOTO       L_main22
	DECFSZ     R12+0, 1
	GOTO       L_main22
	DECFSZ     R11+0, 1
	GOTO       L_main22
	NOP
	NOP
;2.c,120 :: 		lcd_chr(1,1,rec[14]);
	MOVLW      1
	MOVWF      FARG_Lcd_Chr_row+0
	MOVLW      1
	MOVWF      FARG_Lcd_Chr_column+0
	MOVF       _rec+14, 0
	MOVWF      FARG_Lcd_Chr_out_char+0
	CALL       _Lcd_Chr+0
;2.c,121 :: 		for (r=15;r<23;r++){
	MOVLW      15
	MOVWF      main_r_L0+0
L_main23:
	MOVLW      23
	SUBWF      main_r_L0+0, 0
	BTFSC      STATUS+0, 0
	GOTO       L_main24
;2.c,122 :: 		lcd_chr_cp(rec[r]);
	MOVF       main_r_L0+0, 0
	ADDLW      _rec+0
	MOVWF      FSR
	MOVF       INDF+0, 0
	MOVWF      FARG_Lcd_Chr_CP_out_char+0
	CALL       _Lcd_Chr_CP+0
;2.c,121 :: 		for (r=15;r<23;r++){
	INCF       main_r_L0+0, 1
;2.c,123 :: 		}
	GOTO       L_main23
L_main24:
;2.c,124 :: 		lcd_chr(2,1,rec[26]);
	MOVLW      2
	MOVWF      FARG_Lcd_Chr_row+0
	MOVLW      1
	MOVWF      FARG_Lcd_Chr_column+0
	MOVF       _rec+26, 0
	MOVWF      FARG_Lcd_Chr_out_char+0
	CALL       _Lcd_Chr+0
;2.c,125 :: 		for (r=27;r<36;r++){
	MOVLW      27
	MOVWF      main_r_L0+0
L_main26:
	MOVLW      36
	SUBWF      main_r_L0+0, 0
	BTFSC      STATUS+0, 0
	GOTO       L_main27
;2.c,126 :: 		lcd_chr_cp(rec[r]);
	MOVF       main_r_L0+0, 0
	ADDLW      _rec+0
	MOVWF      FSR
	MOVF       INDF+0, 0
	MOVWF      FARG_Lcd_Chr_CP_out_char+0
	CALL       _Lcd_Chr_CP+0
;2.c,125 :: 		for (r=27;r<36;r++){
	INCF       main_r_L0+0, 1
;2.c,127 :: 		}
	GOTO       L_main26
L_main27:
;2.c,128 :: 		delay_ms(2000);
	MOVLW      11
	MOVWF      R11+0
	MOVLW      38
	MOVWF      R12+0
	MOVLW      93
	MOVWF      R13+0
L_main29:
	DECFSZ     R13+0, 1
	GOTO       L_main29
	DECFSZ     R12+0, 1
	GOTO       L_main29
	DECFSZ     R11+0, 1
	GOTO       L_main29
	NOP
	NOP
;2.c,129 :: 		UART1_WRITE_TEXT("AT+CMGF=1");
	MOVLW      ?lstr1_2+0
	MOVWF      FARG_UART1_Write_Text_uart_text+0
	CALL       _UART1_Write_Text+0
;2.c,130 :: 		UART1_WRITE(13);
	MOVLW      13
	MOVWF      FARG_UART1_Write_data_+0
	CALL       _UART1_Write+0
;2.c,131 :: 		delay_ms(300);
	MOVLW      2
	MOVWF      R11+0
	MOVLW      134
	MOVWF      R12+0
	MOVLW      153
	MOVWF      R13+0
L_main30:
	DECFSZ     R13+0, 1
	GOTO       L_main30
	DECFSZ     R12+0, 1
	GOTO       L_main30
	DECFSZ     R11+0, 1
	GOTO       L_main30
;2.c,132 :: 		UART1_WRITE_TEXT(we);
	MOVLW      _we+0
	MOVWF      FARG_UART1_Write_Text_uart_text+0
	CALL       _UART1_Write_Text+0
;2.c,133 :: 		delay_ms(300);
	MOVLW      2
	MOVWF      R11+0
	MOVLW      134
	MOVWF      R12+0
	MOVLW      153
	MOVWF      R13+0
L_main31:
	DECFSZ     R13+0, 1
	GOTO       L_main31
	DECFSZ     R12+0, 1
	GOTO       L_main31
	DECFSZ     R11+0, 1
	GOTO       L_main31
;2.c,134 :: 		UART1_WRITE_TEXT("Latu:");
	MOVLW      ?lstr2_2+0
	MOVWF      FARG_UART1_Write_Text_uart_text+0
	CALL       _UART1_Write_Text+0
;2.c,135 :: 		for (r=14;r<23;r++){
	MOVLW      14
	MOVWF      main_r_L0+0
L_main32:
	MOVLW      23
	SUBWF      main_r_L0+0, 0
	BTFSC      STATUS+0, 0
	GOTO       L_main33
;2.c,136 :: 		UART1_WRITE(rec[r]);
	MOVF       main_r_L0+0, 0
	ADDLW      _rec+0
	MOVWF      FSR
	MOVF       INDF+0, 0
	MOVWF      FARG_UART1_Write_data_+0
	CALL       _UART1_Write+0
;2.c,135 :: 		for (r=14;r<23;r++){
	INCF       main_r_L0+0, 1
;2.c,137 :: 		}
	GOTO       L_main32
L_main33:
;2.c,139 :: 		UART1_WRITE(13);
	MOVLW      13
	MOVWF      FARG_UART1_Write_data_+0
	CALL       _UART1_Write+0
;2.c,140 :: 		UART1_WRITE_TEXT("Long:");
	MOVLW      ?lstr3_2+0
	MOVWF      FARG_UART1_Write_Text_uart_text+0
	CALL       _UART1_Write_Text+0
;2.c,141 :: 		delay_ms(300);
	MOVLW      2
	MOVWF      R11+0
	MOVLW      134
	MOVWF      R12+0
	MOVLW      153
	MOVWF      R13+0
L_main35:
	DECFSZ     R13+0, 1
	GOTO       L_main35
	DECFSZ     R12+0, 1
	GOTO       L_main35
	DECFSZ     R11+0, 1
	GOTO       L_main35
;2.c,142 :: 		for (r=26;r<36;r++){
	MOVLW      26
	MOVWF      main_r_L0+0
L_main36:
	MOVLW      36
	SUBWF      main_r_L0+0, 0
	BTFSC      STATUS+0, 0
	GOTO       L_main37
;2.c,143 :: 		UART1_WRITE(rec[r]);
	MOVF       main_r_L0+0, 0
	ADDLW      _rec+0
	MOVWF      FSR
	MOVF       INDF+0, 0
	MOVWF      FARG_UART1_Write_data_+0
	CALL       _UART1_Write+0
;2.c,142 :: 		for (r=26;r<36;r++){
	INCF       main_r_L0+0, 1
;2.c,144 :: 		}
	GOTO       L_main36
L_main37:
;2.c,145 :: 		UART1_WRITE(13);
	MOVLW      13
	MOVWF      FARG_UART1_Write_data_+0
	CALL       _UART1_Write+0
;2.c,146 :: 		delay_ms(300);
	MOVLW      2
	MOVWF      R11+0
	MOVLW      134
	MOVWF      R12+0
	MOVLW      153
	MOVWF      R13+0
L_main39:
	DECFSZ     R13+0, 1
	GOTO       L_main39
	DECFSZ     R12+0, 1
	GOTO       L_main39
	DECFSZ     R11+0, 1
	GOTO       L_main39
;2.c,147 :: 		UART1_WRITE(26);
	MOVLW      26
	MOVWF      FARG_UART1_Write_data_+0
	CALL       _UART1_Write+0
;2.c,148 :: 		delay_ms(1000);
	MOVLW      6
	MOVWF      R11+0
	MOVLW      19
	MOVWF      R12+0
	MOVLW      173
	MOVWF      R13+0
L_main40:
	DECFSZ     R13+0, 1
	GOTO       L_main40
	DECFSZ     R12+0, 1
	GOTO       L_main40
	DECFSZ     R11+0, 1
	GOTO       L_main40
	NOP
	NOP
;2.c,149 :: 		}
L_main18:
;2.c,150 :: 		}
	GOTO       L_main14
;2.c,151 :: 		}
	GOTO       $+0
; end of _main
